target datalayout = "e-m:e-p270:32:32-p271:32:32-p272:64:64-i64:64-i128:128-f80:128-n8:16:32:64-S128"
target triple = "x86_64-pc-linux-gnu"

%struct._zend_refcounted_h = type { i32, %union.anon.16 }
%union.anon.16 = type { i32 }
%struct._zval_struct = type { %union._zend_value, %union.anon.21, %union.anon.24 }
%union._zend_value = type { i64 }
%union.anon.21 = type { i32 }
%union.anon.24 = type { i32 }
%struct._zend_refcounted = type { %struct._zend_refcounted_h }
%struct._zend_reference = type { %struct._zend_refcounted_h, %struct._zval_struct, %union.zend_property_info_source_list }
%union.zend_property_info_source_list = type { ptr }

; Function Attrs: nounwind uwtable
define internal void @zend_jit_pre_dec_typed_prop(ptr noundef %0, ptr noundef %1, ptr noundef %2) #0 {
  %4 = alloca ptr, align 8
  %5 = alloca ptr, align 8
  %6 = alloca ptr, align 8
  %7 = alloca ptr, align 8
  %8 = alloca ptr, align 8
  %9 = alloca ptr, align 8
  %10 = alloca ptr, align 8
  %11 = alloca ptr, align 8
  %12 = alloca i32, align 4
  store ptr %0, ptr %6, align 8
  store ptr %1, ptr %7, align 8
  store ptr %2, ptr %8, align 8
  br label %13

13:                                               ; preds = %3
  %14 = load ptr, ptr %6, align 8
  store ptr %14, ptr %5, align 8
  %15 = load ptr, ptr %5, align 8
  %16 = getelementptr inbounds %struct._zval_struct, ptr %15, i32 0, i32 1
  %17 = load i8, ptr %16, align 8
  %18 = zext i8 %17 to i32
  %19 = icmp eq i32 %18, 10
  %20 = xor i1 %19, true
  %21 = xor i1 %20, true
  %22 = zext i1 %21 to i32
  %23 = sext i32 %22 to i64
  %24 = icmp ne i64 %23, 0
  br i1 %24, label %25, label %30

25:                                               ; preds = %13
  %26 = load ptr, ptr %6, align 8
  %27 = getelementptr inbounds %struct._zval_struct, ptr %26, i32 0, i32 0
  %28 = load ptr, ptr %27, align 8
  %29 = getelementptr inbounds %struct._zend_reference, ptr %28, i32 0, i32 1
  store ptr %29, ptr %6, align 8
  br label %30

30:                                               ; preds = %25, %13
  br label %31

31:                                               ; preds = %30
  %32 = load ptr, ptr %6, align 8
  %33 = load ptr, ptr %7, align 8
  call void @zend_jit_dec_typed_prop(ptr noundef %32, ptr noundef %33)
  br label %34

34:                                               ; preds = %31
  %35 = load ptr, ptr %8, align 8
  store ptr %35, ptr %9, align 8
  %36 = load ptr, ptr %6, align 8
  store ptr %36, ptr %10, align 8
  %37 = load ptr, ptr %10, align 8
  %38 = getelementptr inbounds %struct._zval_struct, ptr %37, i32 0, i32 0
  %39 = load ptr, ptr %38, align 8
  store ptr %39, ptr %11, align 8
  %40 = load ptr, ptr %10, align 8
  %41 = getelementptr inbounds %struct._zval_struct, ptr %40, i32 0, i32 1
  %42 = load i32, ptr %41, align 8
  store i32 %42, ptr %12, align 4
  br label %43

43:                                               ; preds = %34
  %44 = load ptr, ptr %11, align 8
  %45 = load ptr, ptr %9, align 8
  %46 = getelementptr inbounds %struct._zval_struct, ptr %45, i32 0, i32 0
  store ptr %44, ptr %46, align 8
  %47 = load i32, ptr %12, align 4
  %48 = load ptr, ptr %9, align 8
  %49 = getelementptr inbounds %struct._zval_struct, ptr %48, i32 0, i32 1
  store i32 %47, ptr %49, align 8
  br label %50

50:                                               ; preds = %43
  %51 = load i32, ptr %12, align 4
  %52 = and i32 %51, 65280
  %53 = icmp ne i32 %52, 0
  br i1 %53, label %54, label %60

54:                                               ; preds = %50
  %55 = load ptr, ptr %11, align 8
  %56 = getelementptr inbounds %struct._zend_refcounted, ptr %55, i32 0, i32 0
  store ptr %56, ptr %4, align 8
  %57 = load ptr, ptr %4, align 8
  %58 = load i32, ptr %57, align 4
  %59 = add i32 %58, 1
  store i32 %59, ptr %57, align 4
  br label %60

60:                                               ; preds = %54, %50
  br label %61

61:                                               ; preds = %60
  ret void
}