; Function Attrs: nounwind uwtable
define internal void @zend_jit_pre_dec_typed_prop(ptr noundef %0, ptr noundef %1, ptr nocapture noundef writeonly %2) #0 {
  %4 = getelementptr inbounds i8, ptr %0, i64 8
  %5 = load i8, ptr %4, align 8
  %6 = icmp eq i8 %5, 10
  br i1 %6, label %7, label %10

7:                                                ; preds = %3
  %8 = load ptr, ptr %0, align 8
  %9 = getelementptr inbounds i8, ptr %8, i64 8
  br label %10

10:                                               ; preds = %3, %7
  %.0 = phi ptr [ %9, %7 ], [ %0, %3 ]
  tail call void @zend_jit_dec_typed_prop(ptr noundef nonnull %.0, ptr noundef %1)
  %11 = load ptr, ptr %.0, align 8
  %12 = getelementptr inbounds i8, ptr %.0, i64 8
  %13 = load i32, ptr %12, align 8
  store ptr %11, ptr %2, align 8
  %14 = getelementptr inbounds i8, ptr %2, i64 8
  store i32 %13, ptr %14, align 8
  %15 = and i32 %13, 65280
  %.not = icmp eq i32 %15, 0
  br i1 %.not, label %19, label %16

16:                                               ; preds = %10
  %17 = load i32, ptr %11, align 4
  %18 = add i32 %17, 1
  store i32 %18, ptr %11, align 4
  br label %19

19:                                               ; preds = %10, %16
  ret void
}